
Debug/RTOS_Driver1.elf:     file format elf32-avr

Sections:
Idx Name          Size      VMA       LMA       File off  Algn
  0 .text         00000832  00000000  00000000  00000074  2**1
                  CONTENTS, ALLOC, LOAD, READONLY, CODE
  1 .bss          0000001e  00800060  00800060  000008a6  2**0
                  ALLOC

Disassembly of section .text:

00000000 <__vectors>:
   0:	0c 94 2a 00 	jmp	0x54	; 0x54 <__ctors_end>
   4:	0c 94 3c 00 	jmp	0x78	; 0x78 <__bad_interrupt>
   8:	0c 94 3c 00 	jmp	0x78	; 0x78 <__bad_interrupt>
   c:	0c 94 3c 00 	jmp	0x78	; 0x78 <__bad_interrupt>
  10:	0c 94 3c 00 	jmp	0x78	; 0x78 <__bad_interrupt>
  14:	0c 94 3c 00 	jmp	0x78	; 0x78 <__bad_interrupt>
  18:	0c 94 9f 01 	jmp	0x33e	; 0x33e <__vector_6>
  1c:	0c 94 c8 01 	jmp	0x390	; 0x390 <__vector_7>
  20:	0c 94 f1 01 	jmp	0x3e2	; 0x3e2 <__vector_8>
  24:	0c 94 1a 02 	jmp	0x434	; 0x434 <__vector_9>
  28:	0c 94 3c 00 	jmp	0x78	; 0x78 <__bad_interrupt>
  2c:	0c 94 3c 00 	jmp	0x78	; 0x78 <__bad_interrupt>
  30:	0c 94 3c 00 	jmp	0x78	; 0x78 <__bad_interrupt>
  34:	0c 94 3c 00 	jmp	0x78	; 0x78 <__bad_interrupt>
  38:	0c 94 3c 00 	jmp	0x78	; 0x78 <__bad_interrupt>
  3c:	0c 94 3c 00 	jmp	0x78	; 0x78 <__bad_interrupt>
  40:	0c 94 3c 00 	jmp	0x78	; 0x78 <__bad_interrupt>
  44:	0c 94 3c 00 	jmp	0x78	; 0x78 <__bad_interrupt>
  48:	0c 94 3c 00 	jmp	0x78	; 0x78 <__bad_interrupt>
  4c:	0c 94 3c 00 	jmp	0x78	; 0x78 <__bad_interrupt>
  50:	0c 94 3c 00 	jmp	0x78	; 0x78 <__bad_interrupt>

00000054 <__ctors_end>:
  54:	11 24       	eor	r1, r1
  56:	1f be       	out	0x3f, r1	; 63
  58:	cf e5       	ldi	r28, 0x5F	; 95
  5a:	d8 e0       	ldi	r29, 0x08	; 8
  5c:	de bf       	out	0x3e, r29	; 62
  5e:	cd bf       	out	0x3d, r28	; 61

00000060 <__do_clear_bss>:
  60:	10 e0       	ldi	r17, 0x00	; 0
  62:	a0 e6       	ldi	r26, 0x60	; 96
  64:	b0 e0       	ldi	r27, 0x00	; 0
  66:	01 c0       	rjmp	.+2      	; 0x6a <.do_clear_bss_start>

00000068 <.do_clear_bss_loop>:
  68:	1d 92       	st	X+, r1

0000006a <.do_clear_bss_start>:
  6a:	ae 37       	cpi	r26, 0x7E	; 126
  6c:	b1 07       	cpc	r27, r17
  6e:	e1 f7       	brne	.-8      	; 0x68 <.do_clear_bss_loop>
  70:	0e 94 f7 03 	call	0x7ee	; 0x7ee <main>
  74:	0c 94 17 04 	jmp	0x82e	; 0x82e <_exit>

00000078 <__bad_interrupt>:
  78:	0c 94 00 00 	jmp	0	; 0x0 <__vectors>

0000007c <RTOS_voidCreateTask>:
  7c:	83 30       	cpi	r24, 0x03	; 3
  7e:	b0 f4       	brcc	.+44     	; 0xac <RTOS_voidCreateTask+0x30>
  80:	90 e0       	ldi	r25, 0x00	; 0
  82:	fc 01       	movw	r30, r24
  84:	ee 0f       	add	r30, r30
  86:	ff 1f       	adc	r31, r31
  88:	e8 0f       	add	r30, r24
  8a:	f9 1f       	adc	r31, r25
  8c:	ee 0f       	add	r30, r30
  8e:	ff 1f       	adc	r31, r31
  90:	df 01       	movw	r26, r30
  92:	a0 5a       	subi	r26, 0xA0	; 160
  94:	bf 4f       	sbci	r27, 0xFF	; 255
  96:	11 96       	adiw	r26, 0x01	; 1
  98:	7c 93       	st	X, r23
  9a:	6e 93       	st	-X, r22
  9c:	ee 59       	subi	r30, 0x9E	; 158
  9e:	ff 4f       	sbci	r31, 0xFF	; 255
  a0:	51 83       	std	Z+1, r21	; 0x01
  a2:	40 83       	st	Z, r20
  a4:	15 96       	adiw	r26, 0x05	; 5
  a6:	3c 93       	st	X, r19
  a8:	2e 93       	st	-X, r18
  aa:	14 97       	sbiw	r26, 0x04	; 4
  ac:	08 95       	ret

000000ae <RTOS_voidStartScheduler>:
  ae:	cf 93       	push	r28
  b0:	df 93       	push	r29
  b2:	c0 e6       	ldi	r28, 0x60	; 96
  b4:	d0 e0       	ldi	r29, 0x00	; 0
  b6:	8a 81       	ldd	r24, Y+2	; 0x02
  b8:	9b 81       	ldd	r25, Y+3	; 0x03
  ba:	00 97       	sbiw	r24, 0x00	; 0
  bc:	29 f4       	brne	.+10     	; 0xc8 <RTOS_voidStartScheduler+0x1a>
  be:	ec 81       	ldd	r30, Y+4	; 0x04
  c0:	fd 81       	ldd	r31, Y+5	; 0x05
  c2:	09 95       	icall
  c4:	88 81       	ld	r24, Y
  c6:	99 81       	ldd	r25, Y+1	; 0x01
  c8:	01 97       	sbiw	r24, 0x01	; 1
  ca:	9b 83       	std	Y+3, r25	; 0x03
  cc:	8a 83       	std	Y+2, r24	; 0x02
  ce:	26 96       	adiw	r28, 0x06	; 6
  d0:	80 e0       	ldi	r24, 0x00	; 0
  d2:	c2 37       	cpi	r28, 0x72	; 114
  d4:	d8 07       	cpc	r29, r24
  d6:	79 f7       	brne	.-34     	; 0xb6 <RTOS_voidStartScheduler+0x8>
  d8:	df 91       	pop	r29
  da:	cf 91       	pop	r28
  dc:	08 95       	ret

000000de <RTOS_voidInit>:
  de:	78 94       	sei
  e0:	87 e5       	ldi	r24, 0x57	; 87
  e2:	90 e0       	ldi	r25, 0x00	; 0
  e4:	0e 94 90 01 	call	0x320	; 0x320 <TIMER1_voidSetCallBackCOMA>
  e8:	87 ee       	ldi	r24, 0xE7	; 231
  ea:	93 e0       	ldi	r25, 0x03	; 3
  ec:	0e 94 82 01 	call	0x304	; 0x304 <TIMER1_voidSetOCR1AValue>
  f0:	0e 94 67 01 	call	0x2ce	; 0x2ce <TIMER1_voidCompareAInterruptEnable>
  f4:	84 e0       	ldi	r24, 0x04	; 4
  f6:	90 e0       	ldi	r25, 0x00	; 0
  f8:	62 e0       	ldi	r22, 0x02	; 2
  fa:	70 e0       	ldi	r23, 0x00	; 0
  fc:	40 e0       	ldi	r20, 0x00	; 0
  fe:	50 e0       	ldi	r21, 0x00	; 0
 100:	20 e0       	ldi	r18, 0x00	; 0
 102:	30 e0       	ldi	r19, 0x00	; 0
 104:	0e 94 85 00 	call	0x10a	; 0x10a <TIMER1_voidInit>
 108:	08 95       	ret

0000010a <TIMER1_voidInit>:
 10a:	87 30       	cpi	r24, 0x07	; 7
 10c:	91 05       	cpc	r25, r1
 10e:	09 f4       	brne	.+2      	; 0x112 <TIMER1_voidInit+0x8>
 110:	60 c0       	rjmp	.+192    	; 0x1d2 <TIMER1_voidInit+0xc8>
 112:	88 30       	cpi	r24, 0x08	; 8
 114:	91 05       	cpc	r25, r1
 116:	a8 f4       	brcc	.+42     	; 0x142 <TIMER1_voidInit+0x38>
 118:	83 30       	cpi	r24, 0x03	; 3
 11a:	91 05       	cpc	r25, r1
 11c:	09 f4       	brne	.+2      	; 0x120 <TIMER1_voidInit+0x16>
 11e:	3d c0       	rjmp	.+122    	; 0x19a <TIMER1_voidInit+0x90>
 120:	84 30       	cpi	r24, 0x04	; 4
 122:	91 05       	cpc	r25, r1
 124:	30 f4       	brcc	.+12     	; 0x132 <TIMER1_voidInit+0x28>
 126:	81 30       	cpi	r24, 0x01	; 1
 128:	91 05       	cpc	r25, r1
 12a:	59 f1       	breq	.+86     	; 0x182 <TIMER1_voidInit+0x78>
 12c:	02 97       	sbiw	r24, 0x02	; 2
 12e:	78 f5       	brcc	.+94     	; 0x18e <TIMER1_voidInit+0x84>
 130:	23 c0       	rjmp	.+70     	; 0x178 <TIMER1_voidInit+0x6e>
 132:	85 30       	cpi	r24, 0x05	; 5
 134:	91 05       	cpc	r25, r1
 136:	09 f4       	brne	.+2      	; 0x13a <TIMER1_voidInit+0x30>
 138:	40 c0       	rjmp	.+128    	; 0x1ba <TIMER1_voidInit+0xb0>
 13a:	06 97       	sbiw	r24, 0x06	; 6
 13c:	08 f0       	brcs	.+2      	; 0x140 <TIMER1_voidInit+0x36>
 13e:	43 c0       	rjmp	.+134    	; 0x1c6 <TIMER1_voidInit+0xbc>
 140:	37 c0       	rjmp	.+110    	; 0x1b0 <TIMER1_voidInit+0xa6>
 142:	8b 30       	cpi	r24, 0x0B	; 11
 144:	91 05       	cpc	r25, r1
 146:	09 f4       	brne	.+2      	; 0x14a <TIMER1_voidInit+0x40>
 148:	61 c0       	rjmp	.+194    	; 0x20c <TIMER1_voidInit+0x102>
 14a:	8c 30       	cpi	r24, 0x0C	; 12
 14c:	91 05       	cpc	r25, r1
 14e:	40 f4       	brcc	.+16     	; 0x160 <TIMER1_voidInit+0x56>
 150:	89 30       	cpi	r24, 0x09	; 9
 152:	91 05       	cpc	r25, r1
 154:	09 f4       	brne	.+2      	; 0x158 <TIMER1_voidInit+0x4e>
 156:	4e c0       	rjmp	.+156    	; 0x1f4 <TIMER1_voidInit+0xea>
 158:	0a 97       	sbiw	r24, 0x0a	; 10
 15a:	08 f0       	brcs	.+2      	; 0x15e <TIMER1_voidInit+0x54>
 15c:	51 c0       	rjmp	.+162    	; 0x200 <TIMER1_voidInit+0xf6>
 15e:	45 c0       	rjmp	.+138    	; 0x1ea <TIMER1_voidInit+0xe0>
 160:	8d 30       	cpi	r24, 0x0D	; 13
 162:	91 05       	cpc	r25, r1
 164:	09 f4       	brne	.+2      	; 0x168 <TIMER1_voidInit+0x5e>
 166:	63 c0       	rjmp	.+198    	; 0x22e <TIMER1_voidInit+0x124>
 168:	8d 30       	cpi	r24, 0x0D	; 13
 16a:	91 05       	cpc	r25, r1
 16c:	08 f4       	brcc	.+2      	; 0x170 <TIMER1_voidInit+0x66>
 16e:	5a c0       	rjmp	.+180    	; 0x224 <TIMER1_voidInit+0x11a>
 170:	0e 97       	sbiw	r24, 0x0e	; 14
 172:	09 f0       	breq	.+2      	; 0x176 <TIMER1_voidInit+0x6c>
 174:	6e c0       	rjmp	.+220    	; 0x252 <TIMER1_voidInit+0x148>
 176:	61 c0       	rjmp	.+194    	; 0x23a <TIMER1_voidInit+0x130>
 178:	8f b5       	in	r24, 0x2f	; 47
 17a:	8c 7f       	andi	r24, 0xFC	; 252
 17c:	8f bd       	out	0x2f, r24	; 47
 17e:	8f b5       	in	r24, 0x2f	; 47
 180:	11 c0       	rjmp	.+34     	; 0x1a4 <TIMER1_voidInit+0x9a>
 182:	8f b5       	in	r24, 0x2f	; 47
 184:	8c 7f       	andi	r24, 0xFC	; 252
 186:	8f bd       	out	0x2f, r24	; 47
 188:	8f b5       	in	r24, 0x2f	; 47
 18a:	81 60       	ori	r24, 0x01	; 1
 18c:	0b c0       	rjmp	.+22     	; 0x1a4 <TIMER1_voidInit+0x9a>
 18e:	8f b5       	in	r24, 0x2f	; 47
 190:	8c 7f       	andi	r24, 0xFC	; 252
 192:	8f bd       	out	0x2f, r24	; 47
 194:	8f b5       	in	r24, 0x2f	; 47
 196:	82 60       	ori	r24, 0x02	; 2
 198:	05 c0       	rjmp	.+10     	; 0x1a4 <TIMER1_voidInit+0x9a>
 19a:	8f b5       	in	r24, 0x2f	; 47
 19c:	8c 7f       	andi	r24, 0xFC	; 252
 19e:	8f bd       	out	0x2f, r24	; 47
 1a0:	8f b5       	in	r24, 0x2f	; 47
 1a2:	83 60       	ori	r24, 0x03	; 3
 1a4:	8f bd       	out	0x2f, r24	; 47
 1a6:	8e b5       	in	r24, 0x2e	; 46
 1a8:	87 7e       	andi	r24, 0xE7	; 231
 1aa:	8e bd       	out	0x2e, r24	; 46
 1ac:	8e b5       	in	r24, 0x2e	; 46
 1ae:	50 c0       	rjmp	.+160    	; 0x250 <TIMER1_voidInit+0x146>
 1b0:	8f b5       	in	r24, 0x2f	; 47
 1b2:	8c 7f       	andi	r24, 0xFC	; 252
 1b4:	8f bd       	out	0x2f, r24	; 47
 1b6:	8f b5       	in	r24, 0x2f	; 47
 1b8:	11 c0       	rjmp	.+34     	; 0x1dc <TIMER1_voidInit+0xd2>
 1ba:	8f b5       	in	r24, 0x2f	; 47
 1bc:	8c 7f       	andi	r24, 0xFC	; 252
 1be:	8f bd       	out	0x2f, r24	; 47
 1c0:	8f b5       	in	r24, 0x2f	; 47
 1c2:	81 60       	ori	r24, 0x01	; 1
 1c4:	0b c0       	rjmp	.+22     	; 0x1dc <TIMER1_voidInit+0xd2>
 1c6:	8f b5       	in	r24, 0x2f	; 47
 1c8:	8c 7f       	andi	r24, 0xFC	; 252
 1ca:	8f bd       	out	0x2f, r24	; 47
 1cc:	8f b5       	in	r24, 0x2f	; 47
 1ce:	82 60       	ori	r24, 0x02	; 2
 1d0:	05 c0       	rjmp	.+10     	; 0x1dc <TIMER1_voidInit+0xd2>
 1d2:	8f b5       	in	r24, 0x2f	; 47
 1d4:	8c 7f       	andi	r24, 0xFC	; 252
 1d6:	8f bd       	out	0x2f, r24	; 47
 1d8:	8f b5       	in	r24, 0x2f	; 47
 1da:	83 60       	ori	r24, 0x03	; 3
 1dc:	8f bd       	out	0x2f, r24	; 47
 1de:	8e b5       	in	r24, 0x2e	; 46
 1e0:	87 7e       	andi	r24, 0xE7	; 231
 1e2:	8e bd       	out	0x2e, r24	; 46
 1e4:	8e b5       	in	r24, 0x2e	; 46
 1e6:	88 60       	ori	r24, 0x08	; 8
 1e8:	33 c0       	rjmp	.+102    	; 0x250 <TIMER1_voidInit+0x146>
 1ea:	8f b5       	in	r24, 0x2f	; 47
 1ec:	8c 7f       	andi	r24, 0xFC	; 252
 1ee:	8f bd       	out	0x2f, r24	; 47
 1f0:	8f b5       	in	r24, 0x2f	; 47
 1f2:	11 c0       	rjmp	.+34     	; 0x216 <TIMER1_voidInit+0x10c>
 1f4:	8f b5       	in	r24, 0x2f	; 47
 1f6:	8c 7f       	andi	r24, 0xFC	; 252
 1f8:	8f bd       	out	0x2f, r24	; 47
 1fa:	8f b5       	in	r24, 0x2f	; 47
 1fc:	81 60       	ori	r24, 0x01	; 1
 1fe:	0b c0       	rjmp	.+22     	; 0x216 <TIMER1_voidInit+0x10c>
 200:	8f b5       	in	r24, 0x2f	; 47
 202:	8c 7f       	andi	r24, 0xFC	; 252
 204:	8f bd       	out	0x2f, r24	; 47
 206:	8f b5       	in	r24, 0x2f	; 47
 208:	82 60       	ori	r24, 0x02	; 2
 20a:	05 c0       	rjmp	.+10     	; 0x216 <TIMER1_voidInit+0x10c>
 20c:	8f b5       	in	r24, 0x2f	; 47
 20e:	8c 7f       	andi	r24, 0xFC	; 252
 210:	8f bd       	out	0x2f, r24	; 47
 212:	8f b5       	in	r24, 0x2f	; 47
 214:	83 60       	ori	r24, 0x03	; 3
 216:	8f bd       	out	0x2f, r24	; 47
 218:	8e b5       	in	r24, 0x2e	; 46
 21a:	87 7e       	andi	r24, 0xE7	; 231
 21c:	8e bd       	out	0x2e, r24	; 46
 21e:	8e b5       	in	r24, 0x2e	; 46
 220:	80 61       	ori	r24, 0x10	; 16
 222:	16 c0       	rjmp	.+44     	; 0x250 <TIMER1_voidInit+0x146>
 224:	8f b5       	in	r24, 0x2f	; 47
 226:	8c 7f       	andi	r24, 0xFC	; 252
 228:	8f bd       	out	0x2f, r24	; 47
 22a:	8f b5       	in	r24, 0x2f	; 47
 22c:	0b c0       	rjmp	.+22     	; 0x244 <TIMER1_voidInit+0x13a>
 22e:	8f b5       	in	r24, 0x2f	; 47
 230:	8c 7f       	andi	r24, 0xFC	; 252
 232:	8f bd       	out	0x2f, r24	; 47
 234:	8f b5       	in	r24, 0x2f	; 47
 236:	82 60       	ori	r24, 0x02	; 2
 238:	05 c0       	rjmp	.+10     	; 0x244 <TIMER1_voidInit+0x13a>
 23a:	8f b5       	in	r24, 0x2f	; 47
 23c:	8c 7f       	andi	r24, 0xFC	; 252
 23e:	8f bd       	out	0x2f, r24	; 47
 240:	8f b5       	in	r24, 0x2f	; 47
 242:	83 60       	ori	r24, 0x03	; 3
 244:	8f bd       	out	0x2f, r24	; 47
 246:	8e b5       	in	r24, 0x2e	; 46
 248:	87 7e       	andi	r24, 0xE7	; 231
 24a:	8e bd       	out	0x2e, r24	; 46
 24c:	8e b5       	in	r24, 0x2e	; 46
 24e:	88 61       	ori	r24, 0x18	; 24
 250:	8e bd       	out	0x2e, r24	; 46
 252:	8f b5       	in	r24, 0x2f	; 47
 254:	8f 70       	andi	r24, 0x0F	; 15
 256:	8f bd       	out	0x2f, r24	; 47
 258:	8f b5       	in	r24, 0x2f	; 47
 25a:	42 95       	swap	r20
 25c:	44 0f       	add	r20, r20
 25e:	44 0f       	add	r20, r20
 260:	40 7c       	andi	r20, 0xC0	; 192
 262:	48 2b       	or	r20, r24
 264:	22 95       	swap	r18
 266:	20 7f       	andi	r18, 0xF0	; 240
 268:	42 2b       	or	r20, r18
 26a:	4f bd       	out	0x2f, r20	; 47
 26c:	8e b5       	in	r24, 0x2e	; 46
 26e:	88 7f       	andi	r24, 0xF8	; 248
 270:	8e bd       	out	0x2e, r24	; 46
 272:	8e b5       	in	r24, 0x2e	; 46
 274:	86 2b       	or	r24, r22
 276:	8e bd       	out	0x2e, r24	; 46
 278:	08 95       	ret

0000027a <TIMER1_voidInputCaptureEdge>:
 27a:	00 97       	sbiw	r24, 0x00	; 0
 27c:	21 f4       	brne	.+8      	; 0x286 <TIMER1_voidInputCaptureEdge+0xc>
 27e:	8e b5       	in	r24, 0x2e	; 46
 280:	80 64       	ori	r24, 0x40	; 64
 282:	8e bd       	out	0x2e, r24	; 46
 284:	08 95       	ret
 286:	01 97       	sbiw	r24, 0x01	; 1
 288:	19 f4       	brne	.+6      	; 0x290 <TIMER1_voidInputCaptureEdge+0x16>
 28a:	8e b5       	in	r24, 0x2e	; 46
 28c:	8f 7b       	andi	r24, 0xBF	; 191
 28e:	8e bd       	out	0x2e, r24	; 46
 290:	08 95       	ret

00000292 <TIMER1_voidMeasurePWM>:
 292:	1d bc       	out	0x2d, r1	; 45
 294:	1c bc       	out	0x2c, r1	; 44
 296:	83 e4       	ldi	r24, 0x43	; 67
 298:	92 e0       	ldi	r25, 0x02	; 2
 29a:	90 93 79 00 	sts	0x0079, r25
 29e:	80 93 78 00 	sts	0x0078, r24
 2a2:	80 e0       	ldi	r24, 0x00	; 0
 2a4:	90 e0       	ldi	r25, 0x00	; 0
 2a6:	0e 94 3d 01 	call	0x27a	; 0x27a <TIMER1_voidInputCaptureEdge>
 2aa:	89 b7       	in	r24, 0x39	; 57
 2ac:	80 62       	ori	r24, 0x20	; 32
 2ae:	89 bf       	out	0x39, r24	; 57
 2b0:	10 92 7a 00 	sts	0x007A, r1
 2b4:	ff cf       	rjmp	.-2      	; 0x2b4 <TIMER1_voidMeasurePWM+0x22>

000002b6 <TIMER1_voidGetICR1>:
 2b6:	26 b5       	in	r18, 0x26	; 38
 2b8:	37 b5       	in	r19, 0x27	; 39
 2ba:	c9 01       	movw	r24, r18
 2bc:	08 95       	ret

000002be <TIMER1_voidCaptureInterruptEnable>:
 2be:	89 b7       	in	r24, 0x39	; 57
 2c0:	80 62       	ori	r24, 0x20	; 32
 2c2:	89 bf       	out	0x39, r24	; 57
 2c4:	08 95       	ret

000002c6 <TIMER1_voidCaptureInterruptDisable>:
 2c6:	89 b7       	in	r24, 0x39	; 57
 2c8:	8f 7d       	andi	r24, 0xDF	; 223
 2ca:	89 bf       	out	0x39, r24	; 57
 2cc:	08 95       	ret

000002ce <TIMER1_voidCompareAInterruptEnable>:
 2ce:	89 b7       	in	r24, 0x39	; 57
 2d0:	80 61       	ori	r24, 0x10	; 16
 2d2:	89 bf       	out	0x39, r24	; 57
 2d4:	08 95       	ret

000002d6 <TIMER1_voidCompareAInterruptDisable>:
 2d6:	89 b7       	in	r24, 0x39	; 57
 2d8:	8f 7e       	andi	r24, 0xEF	; 239
 2da:	89 bf       	out	0x39, r24	; 57
 2dc:	08 95       	ret

000002de <TIMER1_voidCompareBInterruptEnable>:
 2de:	89 b7       	in	r24, 0x39	; 57
 2e0:	88 60       	ori	r24, 0x08	; 8
 2e2:	89 bf       	out	0x39, r24	; 57
 2e4:	08 95       	ret

000002e6 <TIMER1_voidCompareBInterruptDisable>:
 2e6:	89 b7       	in	r24, 0x39	; 57
 2e8:	87 7f       	andi	r24, 0xF7	; 247
 2ea:	89 bf       	out	0x39, r24	; 57
 2ec:	08 95       	ret

000002ee <TIMER1_voidOverFlowInterruptEnable>:
 2ee:	89 b7       	in	r24, 0x39	; 57
 2f0:	84 60       	ori	r24, 0x04	; 4
 2f2:	89 bf       	out	0x39, r24	; 57
 2f4:	08 95       	ret

000002f6 <TIMER1_voidOverFlowInterruptDisable>:
 2f6:	89 b7       	in	r24, 0x39	; 57
 2f8:	8b 7f       	andi	r24, 0xFB	; 251
 2fa:	89 bf       	out	0x39, r24	; 57
 2fc:	08 95       	ret

000002fe <TIMER1_voidSetICR1Value>:
 2fe:	97 bd       	out	0x27, r25	; 39
 300:	86 bd       	out	0x26, r24	; 38
 302:	08 95       	ret

00000304 <TIMER1_voidSetOCR1AValue>:
 304:	9b bd       	out	0x2b, r25	; 43
 306:	8a bd       	out	0x2a, r24	; 42
 308:	08 95       	ret

0000030a <TIMER1_voidSetOCR1BValue>:
 30a:	99 bd       	out	0x29, r25	; 41
 30c:	88 bd       	out	0x28, r24	; 40
 30e:	08 95       	ret

00000310 <TIMER1_voidSetTCNT1Value>:
 310:	9d bd       	out	0x2d, r25	; 45
 312:	8c bd       	out	0x2c, r24	; 44
 314:	08 95       	ret

00000316 <TIMER1_voidSetCallBackCapture>:
 316:	90 93 79 00 	sts	0x0079, r25
 31a:	80 93 78 00 	sts	0x0078, r24
 31e:	08 95       	ret

00000320 <TIMER1_voidSetCallBackCOMA>:
 320:	90 93 77 00 	sts	0x0077, r25
 324:	80 93 76 00 	sts	0x0076, r24
 328:	08 95       	ret

0000032a <TIMER1_voidSetCallBackCOMB>:
 32a:	90 93 75 00 	sts	0x0075, r25
 32e:	80 93 74 00 	sts	0x0074, r24
 332:	08 95       	ret

00000334 <TIMER1_voidSetCallBackOVF>:
 334:	90 93 73 00 	sts	0x0073, r25
 338:	80 93 72 00 	sts	0x0072, r24
 33c:	08 95       	ret

0000033e <__vector_6>:
 33e:	1f 92       	push	r1
 340:	0f 92       	push	r0
 342:	0f b6       	in	r0, 0x3f	; 63
 344:	0f 92       	push	r0
 346:	11 24       	eor	r1, r1
 348:	2f 93       	push	r18
 34a:	3f 93       	push	r19
 34c:	4f 93       	push	r20
 34e:	5f 93       	push	r21
 350:	6f 93       	push	r22
 352:	7f 93       	push	r23
 354:	8f 93       	push	r24
 356:	9f 93       	push	r25
 358:	af 93       	push	r26
 35a:	bf 93       	push	r27
 35c:	ef 93       	push	r30
 35e:	ff 93       	push	r31
 360:	e0 91 78 00 	lds	r30, 0x0078
 364:	f0 91 79 00 	lds	r31, 0x0079
 368:	30 97       	sbiw	r30, 0x00	; 0
 36a:	09 f0       	breq	.+2      	; 0x36e <__vector_6+0x30>
 36c:	09 95       	icall
 36e:	ff 91       	pop	r31
 370:	ef 91       	pop	r30
 372:	bf 91       	pop	r27
 374:	af 91       	pop	r26
 376:	9f 91       	pop	r25
 378:	8f 91       	pop	r24
 37a:	7f 91       	pop	r23
 37c:	6f 91       	pop	r22
 37e:	5f 91       	pop	r21
 380:	4f 91       	pop	r20
 382:	3f 91       	pop	r19
 384:	2f 91       	pop	r18
 386:	0f 90       	pop	r0
 388:	0f be       	out	0x3f, r0	; 63
 38a:	0f 90       	pop	r0
 38c:	1f 90       	pop	r1
 38e:	18 95       	reti

00000390 <__vector_7>:
 390:	1f 92       	push	r1
 392:	0f 92       	push	r0
 394:	0f b6       	in	r0, 0x3f	; 63
 396:	0f 92       	push	r0
 398:	11 24       	eor	r1, r1
 39a:	2f 93       	push	r18
 39c:	3f 93       	push	r19
 39e:	4f 93       	push	r20
 3a0:	5f 93       	push	r21
 3a2:	6f 93       	push	r22
 3a4:	7f 93       	push	r23
 3a6:	8f 93       	push	r24
 3a8:	9f 93       	push	r25
 3aa:	af 93       	push	r26
 3ac:	bf 93       	push	r27
 3ae:	ef 93       	push	r30
 3b0:	ff 93       	push	r31
 3b2:	e0 91 76 00 	lds	r30, 0x0076
 3b6:	f0 91 77 00 	lds	r31, 0x0077
 3ba:	30 97       	sbiw	r30, 0x00	; 0
 3bc:	09 f0       	breq	.+2      	; 0x3c0 <__vector_7+0x30>
 3be:	09 95       	icall
 3c0:	ff 91       	pop	r31
 3c2:	ef 91       	pop	r30
 3c4:	bf 91       	pop	r27
 3c6:	af 91       	pop	r26
 3c8:	9f 91       	pop	r25
 3ca:	8f 91       	pop	r24
 3cc:	7f 91       	pop	r23
 3ce:	6f 91       	pop	r22
 3d0:	5f 91       	pop	r21
 3d2:	4f 91       	pop	r20
 3d4:	3f 91       	pop	r19
 3d6:	2f 91       	pop	r18
 3d8:	0f 90       	pop	r0
 3da:	0f be       	out	0x3f, r0	; 63
 3dc:	0f 90       	pop	r0
 3de:	1f 90       	pop	r1
 3e0:	18 95       	reti

000003e2 <__vector_8>:
 3e2:	1f 92       	push	r1
 3e4:	0f 92       	push	r0
 3e6:	0f b6       	in	r0, 0x3f	; 63
 3e8:	0f 92       	push	r0
 3ea:	11 24       	eor	r1, r1
 3ec:	2f 93       	push	r18
 3ee:	3f 93       	push	r19
 3f0:	4f 93       	push	r20
 3f2:	5f 93       	push	r21
 3f4:	6f 93       	push	r22
 3f6:	7f 93       	push	r23
 3f8:	8f 93       	push	r24
 3fa:	9f 93       	push	r25
 3fc:	af 93       	push	r26
 3fe:	bf 93       	push	r27
 400:	ef 93       	push	r30
 402:	ff 93       	push	r31
 404:	e0 91 74 00 	lds	r30, 0x0074
 408:	f0 91 75 00 	lds	r31, 0x0075
 40c:	30 97       	sbiw	r30, 0x00	; 0
 40e:	09 f0       	breq	.+2      	; 0x412 <__vector_8+0x30>
 410:	09 95       	icall
 412:	ff 91       	pop	r31
 414:	ef 91       	pop	r30
 416:	bf 91       	pop	r27
 418:	af 91       	pop	r26
 41a:	9f 91       	pop	r25
 41c:	8f 91       	pop	r24
 41e:	7f 91       	pop	r23
 420:	6f 91       	pop	r22
 422:	5f 91       	pop	r21
 424:	4f 91       	pop	r20
 426:	3f 91       	pop	r19
 428:	2f 91       	pop	r18
 42a:	0f 90       	pop	r0
 42c:	0f be       	out	0x3f, r0	; 63
 42e:	0f 90       	pop	r0
 430:	1f 90       	pop	r1
 432:	18 95       	reti

00000434 <__vector_9>:
 434:	1f 92       	push	r1
 436:	0f 92       	push	r0
 438:	0f b6       	in	r0, 0x3f	; 63
 43a:	0f 92       	push	r0
 43c:	11 24       	eor	r1, r1
 43e:	2f 93       	push	r18
 440:	3f 93       	push	r19
 442:	4f 93       	push	r20
 444:	5f 93       	push	r21
 446:	6f 93       	push	r22
 448:	7f 93       	push	r23
 44a:	8f 93       	push	r24
 44c:	9f 93       	push	r25
 44e:	af 93       	push	r26
 450:	bf 93       	push	r27
 452:	ef 93       	push	r30
 454:	ff 93       	push	r31
 456:	e0 91 72 00 	lds	r30, 0x0072
 45a:	f0 91 73 00 	lds	r31, 0x0073
 45e:	30 97       	sbiw	r30, 0x00	; 0
 460:	09 f0       	breq	.+2      	; 0x464 <__vector_9+0x30>
 462:	09 95       	icall
 464:	ff 91       	pop	r31
 466:	ef 91       	pop	r30
 468:	bf 91       	pop	r27
 46a:	af 91       	pop	r26
 46c:	9f 91       	pop	r25
 46e:	8f 91       	pop	r24
 470:	7f 91       	pop	r23
 472:	6f 91       	pop	r22
 474:	5f 91       	pop	r21
 476:	4f 91       	pop	r20
 478:	3f 91       	pop	r19
 47a:	2f 91       	pop	r18
 47c:	0f 90       	pop	r0
 47e:	0f be       	out	0x3f, r0	; 63
 480:	0f 90       	pop	r0
 482:	1f 90       	pop	r1
 484:	18 95       	reti

00000486 <func_ICU>:
 486:	80 91 7a 00 	lds	r24, 0x007A
 48a:	88 23       	and	r24, r24
 48c:	51 f4       	brne	.+20     	; 0x4a2 <func_ICU+0x1c>
 48e:	86 b5       	in	r24, 0x26	; 38
 490:	97 b5       	in	r25, 0x27	; 39
 492:	80 93 7b 00 	sts	0x007B, r24
 496:	81 e0       	ldi	r24, 0x01	; 1
 498:	90 e0       	ldi	r25, 0x00	; 0
 49a:	0e 94 3d 01 	call	0x27a	; 0x27a <TIMER1_voidInputCaptureEdge>
 49e:	81 e0       	ldi	r24, 0x01	; 1
 4a0:	0b c0       	rjmp	.+22     	; 0x4b8 <func_ICU+0x32>
 4a2:	81 30       	cpi	r24, 0x01	; 1
 4a4:	61 f4       	brne	.+24     	; 0x4be <func_ICU+0x38>
 4a6:	86 b5       	in	r24, 0x26	; 38
 4a8:	97 b5       	in	r25, 0x27	; 39
 4aa:	80 93 7c 00 	sts	0x007C, r24
 4ae:	80 e0       	ldi	r24, 0x00	; 0
 4b0:	90 e0       	ldi	r25, 0x00	; 0
 4b2:	0e 94 3d 01 	call	0x27a	; 0x27a <TIMER1_voidInputCaptureEdge>
 4b6:	82 e0       	ldi	r24, 0x02	; 2
 4b8:	80 93 7a 00 	sts	0x007A, r24
 4bc:	08 95       	ret
 4be:	82 30       	cpi	r24, 0x02	; 2
 4c0:	51 f4       	brne	.+20     	; 0x4d6 <func_ICU+0x50>
 4c2:	86 b5       	in	r24, 0x26	; 38
 4c4:	97 b5       	in	r25, 0x27	; 39
 4c6:	80 93 7d 00 	sts	0x007D, r24
 4ca:	89 b7       	in	r24, 0x39	; 57
 4cc:	8f 7d       	andi	r24, 0xDF	; 223
 4ce:	89 bf       	out	0x39, r24	; 57
 4d0:	83 e0       	ldi	r24, 0x03	; 3
 4d2:	80 93 7a 00 	sts	0x007A, r24
 4d6:	08 95       	ret

000004d8 <DIO_voidInit>:
 4d8:	1b ba       	out	0x1b, r1	; 27
 4da:	18 ba       	out	0x18, r1	; 24
 4dc:	15 ba       	out	0x15, r1	; 21
 4de:	12 ba       	out	0x12, r1	; 18
 4e0:	8f ef       	ldi	r24, 0xFF	; 255
 4e2:	8a bb       	out	0x1a, r24	; 26
 4e4:	87 bb       	out	0x17, r24	; 23
 4e6:	84 bb       	out	0x14, r24	; 20
 4e8:	8e ef       	ldi	r24, 0xFE	; 254
 4ea:	81 bb       	out	0x11, r24	; 17
 4ec:	08 95       	ret

000004ee <DIO_u8GetPinValue>:
 4ee:	81 30       	cpi	r24, 0x01	; 1
 4f0:	51 f0       	breq	.+20     	; 0x506 <DIO_u8GetPinValue+0x18>
 4f2:	81 30       	cpi	r24, 0x01	; 1
 4f4:	28 f0       	brcs	.+10     	; 0x500 <DIO_u8GetPinValue+0x12>
 4f6:	82 30       	cpi	r24, 0x02	; 2
 4f8:	49 f0       	breq	.+18     	; 0x50c <DIO_u8GetPinValue+0x1e>
 4fa:	83 30       	cpi	r24, 0x03	; 3
 4fc:	f1 f4       	brne	.+60     	; 0x53a <DIO_u8GetPinValue+0x4c>
 4fe:	09 c0       	rjmp	.+18     	; 0x512 <DIO_u8GetPinValue+0x24>
 500:	89 b3       	in	r24, 0x19	; 25
 502:	49 b3       	in	r20, 0x19	; 25
 504:	08 c0       	rjmp	.+16     	; 0x516 <DIO_u8GetPinValue+0x28>
 506:	86 b3       	in	r24, 0x16	; 22
 508:	46 b3       	in	r20, 0x16	; 22
 50a:	05 c0       	rjmp	.+10     	; 0x516 <DIO_u8GetPinValue+0x28>
 50c:	83 b3       	in	r24, 0x13	; 19
 50e:	43 b3       	in	r20, 0x13	; 19
 510:	02 c0       	rjmp	.+4      	; 0x516 <DIO_u8GetPinValue+0x28>
 512:	80 b3       	in	r24, 0x10	; 16
 514:	40 b3       	in	r20, 0x10	; 16
 516:	70 e0       	ldi	r23, 0x00	; 0
 518:	21 e0       	ldi	r18, 0x01	; 1
 51a:	30 e0       	ldi	r19, 0x00	; 0
 51c:	02 c0       	rjmp	.+4      	; 0x522 <DIO_u8GetPinValue+0x34>
 51e:	22 0f       	add	r18, r18
 520:	33 1f       	adc	r19, r19
 522:	6a 95       	dec	r22
 524:	e2 f7       	brpl	.-8      	; 0x51e <DIO_u8GetPinValue+0x30>
 526:	20 95       	com	r18
 528:	30 95       	com	r19
 52a:	90 e0       	ldi	r25, 0x00	; 0
 52c:	28 23       	and	r18, r24
 52e:	39 23       	and	r19, r25
 530:	50 e0       	ldi	r21, 0x00	; 0
 532:	24 17       	cp	r18, r20
 534:	35 07       	cpc	r19, r21
 536:	09 f0       	breq	.+2      	; 0x53a <DIO_u8GetPinValue+0x4c>
 538:	71 e0       	ldi	r23, 0x01	; 1
 53a:	87 2f       	mov	r24, r23
 53c:	08 95       	ret

0000053e <DIO_voidSetPinValue>:
 53e:	81 30       	cpi	r24, 0x01	; 1
 540:	29 f1       	breq	.+74     	; 0x58c <DIO_voidSetPinValue+0x4e>
 542:	81 30       	cpi	r24, 0x01	; 1
 544:	38 f0       	brcs	.+14     	; 0x554 <DIO_voidSetPinValue+0x16>
 546:	82 30       	cpi	r24, 0x02	; 2
 548:	09 f4       	brne	.+2      	; 0x54c <DIO_voidSetPinValue+0xe>
 54a:	3c c0       	rjmp	.+120    	; 0x5c4 <DIO_voidSetPinValue+0x86>
 54c:	83 30       	cpi	r24, 0x03	; 3
 54e:	09 f0       	breq	.+2      	; 0x552 <DIO_voidSetPinValue+0x14>
 550:	6e c0       	rjmp	.+220    	; 0x62e <DIO_voidSetPinValue+0xf0>
 552:	53 c0       	rjmp	.+166    	; 0x5fa <DIO_voidSetPinValue+0xbc>
 554:	44 23       	and	r20, r20
 556:	71 f0       	breq	.+28     	; 0x574 <DIO_voidSetPinValue+0x36>
 558:	41 30       	cpi	r20, 0x01	; 1
 55a:	09 f0       	breq	.+2      	; 0x55e <DIO_voidSetPinValue+0x20>
 55c:	68 c0       	rjmp	.+208    	; 0x62e <DIO_voidSetPinValue+0xf0>
 55e:	2b b3       	in	r18, 0x1b	; 27
 560:	81 e0       	ldi	r24, 0x01	; 1
 562:	90 e0       	ldi	r25, 0x00	; 0
 564:	02 c0       	rjmp	.+4      	; 0x56a <DIO_voidSetPinValue+0x2c>
 566:	88 0f       	add	r24, r24
 568:	99 1f       	adc	r25, r25
 56a:	6a 95       	dec	r22
 56c:	e2 f7       	brpl	.-8      	; 0x566 <DIO_voidSetPinValue+0x28>
 56e:	28 2b       	or	r18, r24
 570:	2b bb       	out	0x1b, r18	; 27
 572:	08 95       	ret
 574:	2b b3       	in	r18, 0x1b	; 27
 576:	81 e0       	ldi	r24, 0x01	; 1
 578:	90 e0       	ldi	r25, 0x00	; 0
 57a:	02 c0       	rjmp	.+4      	; 0x580 <DIO_voidSetPinValue+0x42>
 57c:	88 0f       	add	r24, r24
 57e:	99 1f       	adc	r25, r25
 580:	6a 95       	dec	r22
 582:	e2 f7       	brpl	.-8      	; 0x57c <DIO_voidSetPinValue+0x3e>
 584:	80 95       	com	r24
 586:	82 23       	and	r24, r18
 588:	8b bb       	out	0x1b, r24	; 27
 58a:	08 95       	ret
 58c:	44 23       	and	r20, r20
 58e:	71 f0       	breq	.+28     	; 0x5ac <DIO_voidSetPinValue+0x6e>
 590:	41 30       	cpi	r20, 0x01	; 1
 592:	09 f0       	breq	.+2      	; 0x596 <DIO_voidSetPinValue+0x58>
 594:	4c c0       	rjmp	.+152    	; 0x62e <DIO_voidSetPinValue+0xf0>
 596:	28 b3       	in	r18, 0x18	; 24
 598:	81 e0       	ldi	r24, 0x01	; 1
 59a:	90 e0       	ldi	r25, 0x00	; 0
 59c:	02 c0       	rjmp	.+4      	; 0x5a2 <DIO_voidSetPinValue+0x64>
 59e:	88 0f       	add	r24, r24
 5a0:	99 1f       	adc	r25, r25
 5a2:	6a 95       	dec	r22
 5a4:	e2 f7       	brpl	.-8      	; 0x59e <DIO_voidSetPinValue+0x60>
 5a6:	28 2b       	or	r18, r24
 5a8:	28 bb       	out	0x18, r18	; 24
 5aa:	08 95       	ret
 5ac:	28 b3       	in	r18, 0x18	; 24
 5ae:	81 e0       	ldi	r24, 0x01	; 1
 5b0:	90 e0       	ldi	r25, 0x00	; 0
 5b2:	02 c0       	rjmp	.+4      	; 0x5b8 <DIO_voidSetPinValue+0x7a>
 5b4:	88 0f       	add	r24, r24
 5b6:	99 1f       	adc	r25, r25
 5b8:	6a 95       	dec	r22
 5ba:	e2 f7       	brpl	.-8      	; 0x5b4 <DIO_voidSetPinValue+0x76>
 5bc:	80 95       	com	r24
 5be:	82 23       	and	r24, r18
 5c0:	88 bb       	out	0x18, r24	; 24
 5c2:	08 95       	ret
 5c4:	44 23       	and	r20, r20
 5c6:	69 f0       	breq	.+26     	; 0x5e2 <DIO_voidSetPinValue+0xa4>
 5c8:	41 30       	cpi	r20, 0x01	; 1
 5ca:	89 f5       	brne	.+98     	; 0x62e <DIO_voidSetPinValue+0xf0>
 5cc:	25 b3       	in	r18, 0x15	; 21
 5ce:	81 e0       	ldi	r24, 0x01	; 1
 5d0:	90 e0       	ldi	r25, 0x00	; 0
 5d2:	02 c0       	rjmp	.+4      	; 0x5d8 <DIO_voidSetPinValue+0x9a>
 5d4:	88 0f       	add	r24, r24
 5d6:	99 1f       	adc	r25, r25
 5d8:	6a 95       	dec	r22
 5da:	e2 f7       	brpl	.-8      	; 0x5d4 <DIO_voidSetPinValue+0x96>
 5dc:	28 2b       	or	r18, r24
 5de:	25 bb       	out	0x15, r18	; 21
 5e0:	08 95       	ret
 5e2:	25 b3       	in	r18, 0x15	; 21
 5e4:	81 e0       	ldi	r24, 0x01	; 1
 5e6:	90 e0       	ldi	r25, 0x00	; 0
 5e8:	02 c0       	rjmp	.+4      	; 0x5ee <DIO_voidSetPinValue+0xb0>
 5ea:	88 0f       	add	r24, r24
 5ec:	99 1f       	adc	r25, r25
 5ee:	6a 95       	dec	r22
 5f0:	e2 f7       	brpl	.-8      	; 0x5ea <DIO_voidSetPinValue+0xac>
 5f2:	80 95       	com	r24
 5f4:	82 23       	and	r24, r18
 5f6:	85 bb       	out	0x15, r24	; 21
 5f8:	08 95       	ret
 5fa:	44 23       	and	r20, r20
 5fc:	69 f0       	breq	.+26     	; 0x618 <DIO_voidSetPinValue+0xda>
 5fe:	41 30       	cpi	r20, 0x01	; 1
 600:	b1 f4       	brne	.+44     	; 0x62e <DIO_voidSetPinValue+0xf0>
 602:	22 b3       	in	r18, 0x12	; 18
 604:	81 e0       	ldi	r24, 0x01	; 1
 606:	90 e0       	ldi	r25, 0x00	; 0
 608:	02 c0       	rjmp	.+4      	; 0x60e <DIO_voidSetPinValue+0xd0>
 60a:	88 0f       	add	r24, r24
 60c:	99 1f       	adc	r25, r25
 60e:	6a 95       	dec	r22
 610:	e2 f7       	brpl	.-8      	; 0x60a <DIO_voidSetPinValue+0xcc>
 612:	28 2b       	or	r18, r24
 614:	22 bb       	out	0x12, r18	; 18
 616:	08 95       	ret
 618:	22 b3       	in	r18, 0x12	; 18
 61a:	81 e0       	ldi	r24, 0x01	; 1
 61c:	90 e0       	ldi	r25, 0x00	; 0
 61e:	02 c0       	rjmp	.+4      	; 0x624 <DIO_voidSetPinValue+0xe6>
 620:	88 0f       	add	r24, r24
 622:	99 1f       	adc	r25, r25
 624:	6a 95       	dec	r22
 626:	e2 f7       	brpl	.-8      	; 0x620 <DIO_voidSetPinValue+0xe2>
 628:	80 95       	com	r24
 62a:	82 23       	and	r24, r18
 62c:	82 bb       	out	0x12, r24	; 18
 62e:	08 95       	ret

00000630 <DIO_voidSetPinDirection>:
 630:	81 30       	cpi	r24, 0x01	; 1
 632:	29 f1       	breq	.+74     	; 0x67e <DIO_voidSetPinDirection+0x4e>
 634:	81 30       	cpi	r24, 0x01	; 1
 636:	38 f0       	brcs	.+14     	; 0x646 <DIO_voidSetPinDirection+0x16>
 638:	82 30       	cpi	r24, 0x02	; 2
 63a:	09 f4       	brne	.+2      	; 0x63e <DIO_voidSetPinDirection+0xe>
 63c:	3c c0       	rjmp	.+120    	; 0x6b6 <DIO_voidSetPinDirection+0x86>
 63e:	83 30       	cpi	r24, 0x03	; 3
 640:	09 f0       	breq	.+2      	; 0x644 <DIO_voidSetPinDirection+0x14>
 642:	6e c0       	rjmp	.+220    	; 0x720 <DIO_voidSetPinDirection+0xf0>
 644:	53 c0       	rjmp	.+166    	; 0x6ec <DIO_voidSetPinDirection+0xbc>
 646:	44 23       	and	r20, r20
 648:	71 f0       	breq	.+28     	; 0x666 <DIO_voidSetPinDirection+0x36>
 64a:	41 30       	cpi	r20, 0x01	; 1
 64c:	09 f0       	breq	.+2      	; 0x650 <DIO_voidSetPinDirection+0x20>
 64e:	68 c0       	rjmp	.+208    	; 0x720 <DIO_voidSetPinDirection+0xf0>
 650:	2a b3       	in	r18, 0x1a	; 26
 652:	81 e0       	ldi	r24, 0x01	; 1
 654:	90 e0       	ldi	r25, 0x00	; 0
 656:	02 c0       	rjmp	.+4      	; 0x65c <DIO_voidSetPinDirection+0x2c>
 658:	88 0f       	add	r24, r24
 65a:	99 1f       	adc	r25, r25
 65c:	6a 95       	dec	r22
 65e:	e2 f7       	brpl	.-8      	; 0x658 <DIO_voidSetPinDirection+0x28>
 660:	28 2b       	or	r18, r24
 662:	2a bb       	out	0x1a, r18	; 26
 664:	08 95       	ret
 666:	2a b3       	in	r18, 0x1a	; 26
 668:	81 e0       	ldi	r24, 0x01	; 1
 66a:	90 e0       	ldi	r25, 0x00	; 0
 66c:	02 c0       	rjmp	.+4      	; 0x672 <DIO_voidSetPinDirection+0x42>
 66e:	88 0f       	add	r24, r24
 670:	99 1f       	adc	r25, r25
 672:	6a 95       	dec	r22
 674:	e2 f7       	brpl	.-8      	; 0x66e <DIO_voidSetPinDirection+0x3e>
 676:	80 95       	com	r24
 678:	82 23       	and	r24, r18
 67a:	8a bb       	out	0x1a, r24	; 26
 67c:	08 95       	ret
 67e:	44 23       	and	r20, r20
 680:	71 f0       	breq	.+28     	; 0x69e <DIO_voidSetPinDirection+0x6e>
 682:	41 30       	cpi	r20, 0x01	; 1
 684:	09 f0       	breq	.+2      	; 0x688 <DIO_voidSetPinDirection+0x58>
 686:	4c c0       	rjmp	.+152    	; 0x720 <DIO_voidSetPinDirection+0xf0>
 688:	27 b3       	in	r18, 0x17	; 23
 68a:	81 e0       	ldi	r24, 0x01	; 1
 68c:	90 e0       	ldi	r25, 0x00	; 0
 68e:	02 c0       	rjmp	.+4      	; 0x694 <DIO_voidSetPinDirection+0x64>
 690:	88 0f       	add	r24, r24
 692:	99 1f       	adc	r25, r25
 694:	6a 95       	dec	r22
 696:	e2 f7       	brpl	.-8      	; 0x690 <DIO_voidSetPinDirection+0x60>
 698:	28 2b       	or	r18, r24
 69a:	27 bb       	out	0x17, r18	; 23
 69c:	08 95       	ret
 69e:	27 b3       	in	r18, 0x17	; 23
 6a0:	81 e0       	ldi	r24, 0x01	; 1
 6a2:	90 e0       	ldi	r25, 0x00	; 0
 6a4:	02 c0       	rjmp	.+4      	; 0x6aa <DIO_voidSetPinDirection+0x7a>
 6a6:	88 0f       	add	r24, r24
 6a8:	99 1f       	adc	r25, r25
 6aa:	6a 95       	dec	r22
 6ac:	e2 f7       	brpl	.-8      	; 0x6a6 <DIO_voidSetPinDirection+0x76>
 6ae:	80 95       	com	r24
 6b0:	82 23       	and	r24, r18
 6b2:	87 bb       	out	0x17, r24	; 23
 6b4:	08 95       	ret
 6b6:	44 23       	and	r20, r20
 6b8:	69 f0       	breq	.+26     	; 0x6d4 <DIO_voidSetPinDirection+0xa4>
 6ba:	41 30       	cpi	r20, 0x01	; 1
 6bc:	89 f5       	brne	.+98     	; 0x720 <DIO_voidSetPinDirection+0xf0>
 6be:	24 b3       	in	r18, 0x14	; 20
 6c0:	81 e0       	ldi	r24, 0x01	; 1
 6c2:	90 e0       	ldi	r25, 0x00	; 0
 6c4:	02 c0       	rjmp	.+4      	; 0x6ca <DIO_voidSetPinDirection+0x9a>
 6c6:	88 0f       	add	r24, r24
 6c8:	99 1f       	adc	r25, r25
 6ca:	6a 95       	dec	r22
 6cc:	e2 f7       	brpl	.-8      	; 0x6c6 <DIO_voidSetPinDirection+0x96>
 6ce:	28 2b       	or	r18, r24
 6d0:	24 bb       	out	0x14, r18	; 20
 6d2:	08 95       	ret
 6d4:	24 b3       	in	r18, 0x14	; 20
 6d6:	81 e0       	ldi	r24, 0x01	; 1
 6d8:	90 e0       	ldi	r25, 0x00	; 0
 6da:	02 c0       	rjmp	.+4      	; 0x6e0 <DIO_voidSetPinDirection+0xb0>
 6dc:	88 0f       	add	r24, r24
 6de:	99 1f       	adc	r25, r25
 6e0:	6a 95       	dec	r22
 6e2:	e2 f7       	brpl	.-8      	; 0x6dc <DIO_voidSetPinDirection+0xac>
 6e4:	80 95       	com	r24
 6e6:	82 23       	and	r24, r18
 6e8:	84 bb       	out	0x14, r24	; 20
 6ea:	08 95       	ret
 6ec:	44 23       	and	r20, r20
 6ee:	69 f0       	breq	.+26     	; 0x70a <DIO_voidSetPinDirection+0xda>
 6f0:	41 30       	cpi	r20, 0x01	; 1
 6f2:	b1 f4       	brne	.+44     	; 0x720 <DIO_voidSetPinDirection+0xf0>
 6f4:	21 b3       	in	r18, 0x11	; 17
 6f6:	81 e0       	ldi	r24, 0x01	; 1
 6f8:	90 e0       	ldi	r25, 0x00	; 0
 6fa:	02 c0       	rjmp	.+4      	; 0x700 <DIO_voidSetPinDirection+0xd0>
 6fc:	88 0f       	add	r24, r24
 6fe:	99 1f       	adc	r25, r25
 700:	6a 95       	dec	r22
 702:	e2 f7       	brpl	.-8      	; 0x6fc <DIO_voidSetPinDirection+0xcc>
 704:	28 2b       	or	r18, r24
 706:	21 bb       	out	0x11, r18	; 17
 708:	08 95       	ret
 70a:	21 b3       	in	r18, 0x11	; 17
 70c:	81 e0       	ldi	r24, 0x01	; 1
 70e:	90 e0       	ldi	r25, 0x00	; 0
 710:	02 c0       	rjmp	.+4      	; 0x716 <DIO_voidSetPinDirection+0xe6>
 712:	88 0f       	add	r24, r24
 714:	99 1f       	adc	r25, r25
 716:	6a 95       	dec	r22
 718:	e2 f7       	brpl	.-8      	; 0x712 <DIO_voidSetPinDirection+0xe2>
 71a:	80 95       	com	r24
 71c:	82 23       	and	r24, r18
 71e:	81 bb       	out	0x11, r24	; 17
 720:	08 95       	ret

00000722 <DIO_voidTogglePin>:
 722:	81 30       	cpi	r24, 0x01	; 1
 724:	91 f0       	breq	.+36     	; 0x74a <DIO_voidTogglePin+0x28>
 726:	81 30       	cpi	r24, 0x01	; 1
 728:	28 f0       	brcs	.+10     	; 0x734 <DIO_voidTogglePin+0x12>
 72a:	82 30       	cpi	r24, 0x02	; 2
 72c:	c9 f0       	breq	.+50     	; 0x760 <DIO_voidTogglePin+0x3e>
 72e:	83 30       	cpi	r24, 0x03	; 3
 730:	61 f5       	brne	.+88     	; 0x78a <DIO_voidTogglePin+0x68>
 732:	21 c0       	rjmp	.+66     	; 0x776 <DIO_voidTogglePin+0x54>
 734:	2b b3       	in	r18, 0x1b	; 27
 736:	81 e0       	ldi	r24, 0x01	; 1
 738:	90 e0       	ldi	r25, 0x00	; 0
 73a:	02 c0       	rjmp	.+4      	; 0x740 <DIO_voidTogglePin+0x1e>
 73c:	88 0f       	add	r24, r24
 73e:	99 1f       	adc	r25, r25
 740:	6a 95       	dec	r22
 742:	e2 f7       	brpl	.-8      	; 0x73c <DIO_voidTogglePin+0x1a>
 744:	28 27       	eor	r18, r24
 746:	2b bb       	out	0x1b, r18	; 27
 748:	08 95       	ret
 74a:	28 b3       	in	r18, 0x18	; 24
 74c:	81 e0       	ldi	r24, 0x01	; 1
 74e:	90 e0       	ldi	r25, 0x00	; 0
 750:	02 c0       	rjmp	.+4      	; 0x756 <DIO_voidTogglePin+0x34>
 752:	88 0f       	add	r24, r24
 754:	99 1f       	adc	r25, r25
 756:	6a 95       	dec	r22
 758:	e2 f7       	brpl	.-8      	; 0x752 <DIO_voidTogglePin+0x30>
 75a:	28 27       	eor	r18, r24
 75c:	28 bb       	out	0x18, r18	; 24
 75e:	08 95       	ret
 760:	25 b3       	in	r18, 0x15	; 21
 762:	81 e0       	ldi	r24, 0x01	; 1
 764:	90 e0       	ldi	r25, 0x00	; 0
 766:	02 c0       	rjmp	.+4      	; 0x76c <DIO_voidTogglePin+0x4a>
 768:	88 0f       	add	r24, r24
 76a:	99 1f       	adc	r25, r25
 76c:	6a 95       	dec	r22
 76e:	e2 f7       	brpl	.-8      	; 0x768 <DIO_voidTogglePin+0x46>
 770:	28 27       	eor	r18, r24
 772:	25 bb       	out	0x15, r18	; 21
 774:	08 95       	ret
 776:	22 b3       	in	r18, 0x12	; 18
 778:	81 e0       	ldi	r24, 0x01	; 1
 77a:	90 e0       	ldi	r25, 0x00	; 0
 77c:	02 c0       	rjmp	.+4      	; 0x782 <DIO_voidTogglePin+0x60>
 77e:	88 0f       	add	r24, r24
 780:	99 1f       	adc	r25, r25
 782:	6a 95       	dec	r22
 784:	e2 f7       	brpl	.-8      	; 0x77e <DIO_voidTogglePin+0x5c>
 786:	28 27       	eor	r18, r24
 788:	22 bb       	out	0x12, r18	; 18
 78a:	08 95       	ret

0000078c <DIO_voidSetPortValue>:
 78c:	81 30       	cpi	r24, 0x01	; 1
 78e:	49 f0       	breq	.+18     	; 0x7a2 <DIO_voidSetPortValue+0x16>
 790:	81 30       	cpi	r24, 0x01	; 1
 792:	28 f0       	brcs	.+10     	; 0x79e <DIO_voidSetPortValue+0x12>
 794:	82 30       	cpi	r24, 0x02	; 2
 796:	39 f0       	breq	.+14     	; 0x7a6 <DIO_voidSetPortValue+0x1a>
 798:	83 30       	cpi	r24, 0x03	; 3
 79a:	41 f4       	brne	.+16     	; 0x7ac <DIO_voidSetPortValue+0x20>
 79c:	06 c0       	rjmp	.+12     	; 0x7aa <DIO_voidSetPortValue+0x1e>
 79e:	6b bb       	out	0x1b, r22	; 27
 7a0:	08 95       	ret
 7a2:	68 bb       	out	0x18, r22	; 24
 7a4:	08 95       	ret
 7a6:	65 bb       	out	0x15, r22	; 21
 7a8:	08 95       	ret
 7aa:	62 bb       	out	0x12, r22	; 18
 7ac:	08 95       	ret

000007ae <DIO_voidSetPortDirection>:
 7ae:	81 30       	cpi	r24, 0x01	; 1
 7b0:	49 f0       	breq	.+18     	; 0x7c4 <DIO_voidSetPortDirection+0x16>
 7b2:	81 30       	cpi	r24, 0x01	; 1
 7b4:	28 f0       	brcs	.+10     	; 0x7c0 <DIO_voidSetPortDirection+0x12>
 7b6:	82 30       	cpi	r24, 0x02	; 2
 7b8:	39 f0       	breq	.+14     	; 0x7c8 <DIO_voidSetPortDirection+0x1a>
 7ba:	83 30       	cpi	r24, 0x03	; 3
 7bc:	41 f4       	brne	.+16     	; 0x7ce <DIO_voidSetPortDirection+0x20>
 7be:	06 c0       	rjmp	.+12     	; 0x7cc <DIO_voidSetPortDirection+0x1e>
 7c0:	6a bb       	out	0x1a, r22	; 26
 7c2:	08 95       	ret
 7c4:	67 bb       	out	0x17, r22	; 23
 7c6:	08 95       	ret
 7c8:	64 bb       	out	0x14, r22	; 20
 7ca:	08 95       	ret
 7cc:	61 bb       	out	0x11, r22	; 17
 7ce:	08 95       	ret

000007d0 <toggleLED3>:
 7d0:	80 e0       	ldi	r24, 0x00	; 0
 7d2:	62 e0       	ldi	r22, 0x02	; 2
 7d4:	0e 94 91 03 	call	0x722	; 0x722 <DIO_voidTogglePin>
 7d8:	08 95       	ret

000007da <toggleLED2>:
 7da:	80 e0       	ldi	r24, 0x00	; 0
 7dc:	61 e0       	ldi	r22, 0x01	; 1
 7de:	0e 94 91 03 	call	0x722	; 0x722 <DIO_voidTogglePin>
 7e2:	08 95       	ret

000007e4 <toggleLED1>:
 7e4:	80 e0       	ldi	r24, 0x00	; 0
 7e6:	60 e0       	ldi	r22, 0x00	; 0
 7e8:	0e 94 91 03 	call	0x722	; 0x722 <DIO_voidTogglePin>
 7ec:	08 95       	ret

000007ee <main>:
 7ee:	0e 94 6c 02 	call	0x4d8	; 0x4d8 <DIO_voidInit>
 7f2:	80 e0       	ldi	r24, 0x00	; 0
 7f4:	68 ee       	ldi	r22, 0xE8	; 232
 7f6:	73 e0       	ldi	r23, 0x03	; 3
 7f8:	40 e0       	ldi	r20, 0x00	; 0
 7fa:	50 e0       	ldi	r21, 0x00	; 0
 7fc:	22 ef       	ldi	r18, 0xF2	; 242
 7fe:	33 e0       	ldi	r19, 0x03	; 3
 800:	0e 94 3e 00 	call	0x7c	; 0x7c <RTOS_voidCreateTask>
 804:	81 e0       	ldi	r24, 0x01	; 1
 806:	60 ed       	ldi	r22, 0xD0	; 208
 808:	77 e0       	ldi	r23, 0x07	; 7
 80a:	40 e0       	ldi	r20, 0x00	; 0
 80c:	50 e0       	ldi	r21, 0x00	; 0
 80e:	2d ee       	ldi	r18, 0xED	; 237
 810:	33 e0       	ldi	r19, 0x03	; 3
 812:	0e 94 3e 00 	call	0x7c	; 0x7c <RTOS_voidCreateTask>
 816:	82 e0       	ldi	r24, 0x02	; 2
 818:	68 eb       	ldi	r22, 0xB8	; 184
 81a:	7b e0       	ldi	r23, 0x0B	; 11
 81c:	40 e0       	ldi	r20, 0x00	; 0
 81e:	50 e0       	ldi	r21, 0x00	; 0
 820:	28 ee       	ldi	r18, 0xE8	; 232
 822:	33 e0       	ldi	r19, 0x03	; 3
 824:	0e 94 3e 00 	call	0x7c	; 0x7c <RTOS_voidCreateTask>
 828:	0e 94 6f 00 	call	0xde	; 0xde <RTOS_voidInit>
 82c:	ff cf       	rjmp	.-2      	; 0x82c <main+0x3e>

0000082e <_exit>:
 82e:	f8 94       	cli

00000830 <__stop_program>:
 830:	ff cf       	rjmp	.-2      	; 0x830 <__stop_program>
